target datalayout = "e-m:e-p270:32:32-p271:32:32-p272:64:64-i64:64-i128:128-f80:128-n8:16:32:64-S128"
target triple = "x86_64-pc-linux-gnu"

%struct.mbedtls_ecp_group = type { i32, %struct.mbedtls_mpi, %struct.mbedtls_mpi, %struct.mbedtls_mpi, %struct.mbedtls_ecp_point, %struct.mbedtls_mpi, i64, i64, i32, ptr, ptr, ptr, ptr, ptr, i64 }
%struct.mbedtls_ecp_point = type { %struct.mbedtls_mpi, %struct.mbedtls_mpi, %struct.mbedtls_mpi }
%struct.mbedtls_mpi = type { ptr, i16, i16 }
%struct.mbedtls_ecdh_context = type { i8, i32, i32, %union.anon }
%union.anon = type { %struct.mbedtls_ecdh_context_mbed }
%struct.mbedtls_ecdh_context_mbed = type { %struct.mbedtls_ecp_group, %struct.mbedtls_mpi, %struct.mbedtls_ecp_point, %struct.mbedtls_ecp_point, %struct.mbedtls_mpi }
%struct.mbedtls_ecp_keypair = type { %struct.mbedtls_ecp_group, %struct.mbedtls_mpi, %struct.mbedtls_ecp_point }

; Function Attrs: nounwind uwtable
define internal i32 @ecdh_setup_internal(ptr noundef %0, i32 noundef %1) #0 {
  %3 = alloca i32, align 4
  %4 = alloca ptr, align 8
  %5 = alloca i32, align 4
  %6 = alloca i32, align 4
  %7 = alloca i32, align 4
  store ptr %0, ptr %4, align 8, !tbaa !21
  store i32 %1, ptr %5, align 4, !tbaa !3
  call void @llvm.lifetime.start.p0(i64 4, ptr %6) #4
  store i32 -110, ptr %6, align 4, !tbaa !3
  %8 = load ptr, ptr %4, align 8, !tbaa !21
  %9 = getelementptr inbounds nuw %struct.mbedtls_ecdh_context_mbed, ptr %8, i32 0, i32 0
  %10 = load i32, ptr %5, align 4, !tbaa !3
  %11 = call i32 @mbedtls_ecp_group_load(ptr noundef %9, i32 noundef %10)
  store i32 %11, ptr %6, align 4, !tbaa !3
  %12 = load i32, ptr %6, align 4, !tbaa !3
  %13 = icmp ne i32 %12, 0
  br i1 %13, label %14, label %15

14:                                               ; preds = %2
  store i32 -20096, ptr %3, align 4
  store i32 1, ptr %7, align 4
  br label %16

15:                                               ; preds = %2
  store i32 0, ptr %3, align 4
  store i32 1, ptr %7, align 4
  br label %16

16:                                               ; preds = %15, %14
  call void @llvm.lifetime.end.p0(i64 4, ptr %6) #4
  %17 = load i32, ptr %3, align 4
  ret i32 %17
}

; Function Attrs: nounwind uwtable
define internal void @ecdh_init_internal(ptr noundef %0) #0 {
  %2 = alloca ptr, align 8
  store ptr %0, ptr %2, align 8, !tbaa !21
  %3 = load ptr, ptr %2, align 8, !tbaa !21
  %4 = getelementptr inbounds nuw %struct.mbedtls_ecdh_context_mbed, ptr %3, i32 0, i32 0
  call void @mbedtls_ecp_group_init(ptr noundef %4)
  %5 = load ptr, ptr %2, align 8, !tbaa !21
  %6 = getelementptr inbounds nuw %struct.mbedtls_ecdh_context_mbed, ptr %5, i32 0, i32 1
  call void @mbedtls_mpi_init(ptr noundef %6)
  %7 = load ptr, ptr %2, align 8, !tbaa !21
  %8 = getelementptr inbounds nuw %struct.mbedtls_ecdh_context_mbed, ptr %7, i32 0, i32 2
  call void @mbedtls_ecp_point_init(ptr noundef %8)
  %9 = load ptr, ptr %2, align 8, !tbaa !21
  %10 = getelementptr inbounds nuw %struct.mbedtls_ecdh_context_mbed, ptr %9, i32 0, i32 3
  call void @mbedtls_ecp_point_init(ptr noundef %10)
  %11 = load ptr, ptr %2, align 8, !tbaa !21
  %12 = getelementptr inbounds nuw %struct.mbedtls_ecdh_context_mbed, ptr %11, i32 0, i32 4
  call void @mbedtls_mpi_init(ptr noundef %12)
  ret void
}

; Function Attrs: nounwind uwtable
define internal i32 @ecdh_get_params_internal(ptr noundef %0, ptr noundef %1, i32 noundef %2) #0 {
  %4 = alloca i32, align 4
  %5 = alloca ptr, align 8
  %6 = alloca ptr, align 8
  %7 = alloca i32, align 4
  %8 = alloca i32, align 4
  %9 = alloca i32, align 4
  store ptr %0, ptr %5, align 8, !tbaa !21
  store ptr %1, ptr %6, align 8, !tbaa !38
  store i32 %2, ptr %7, align 4, !tbaa !3
  call void @llvm.lifetime.start.p0(i64 4, ptr %8) #4
  store i32 -110, ptr %8, align 4, !tbaa !3
  %10 = load i32, ptr %7, align 4, !tbaa !3
  %11 = icmp eq i32 %10, 1
  br i1 %11, label %12, label %18

12:                                               ; preds = %3
  %13 = load ptr, ptr %5, align 8, !tbaa !21
  %14 = getelementptr inbounds nuw %struct.mbedtls_ecdh_context_mbed, ptr %13, i32 0, i32 3
  %15 = load ptr, ptr %6, align 8, !tbaa !38
  %16 = getelementptr inbounds nuw %struct.mbedtls_ecp_keypair, ptr %15, i32 0, i32 2
  %17 = call i32 @mbedtls_ecp_copy(ptr noundef %14, ptr noundef %16)
  store i32 %17, ptr %4, align 4
  store i32 1, ptr %9, align 4
  br label %39

18:                                               ; preds = %3
  %19 = load i32, ptr %7, align 4, !tbaa !3
  %20 = icmp ne i32 %19, 0
  br i1 %20, label %21, label %22

21:                                               ; preds = %18
  store i32 -20352, ptr %4, align 4
  store i32 1, ptr %9, align 4
  br label %39

22:                                               ; preds = %18
  %23 = load ptr, ptr %5, align 8, !tbaa !21
  %24 = getelementptr inbounds nuw %struct.mbedtls_ecdh_context_mbed, ptr %23, i32 0, i32 2
  %25 = load ptr, ptr %6, align 8, !tbaa !38
  %26 = getelementptr inbounds nuw %struct.mbedtls_ecp_keypair, ptr %25, i32 0, i32 2
  %27 = call i32 @mbedtls_ecp_copy(ptr noundef %24, ptr noundef %26)
  store i32 %27, ptr %8, align 4, !tbaa !3
  %28 = icmp ne i32 %27, 0
  br i1 %28, label %36, label %29

29:                                               ; preds = %22
  %30 = load ptr, ptr %5, align 8, !tbaa !21
  %31 = getelementptr inbounds nuw %struct.mbedtls_ecdh_context_mbed, ptr %30, i32 0, i32 1
  %32 = load ptr, ptr %6, align 8, !tbaa !38
  %33 = getelementptr inbounds nuw %struct.mbedtls_ecp_keypair, ptr %32, i32 0, i32 1
  %34 = call i32 @mbedtls_mpi_copy(ptr noundef %31, ptr noundef %33)
  store i32 %34, ptr %8, align 4, !tbaa !3
  %35 = icmp ne i32 %34, 0
  br i1 %35, label %36, label %38

36:                                               ; preds = %29, %22
  %37 = load i32, ptr %8, align 4, !tbaa !3
  store i32 %37, ptr %4, align 4
  store i32 1, ptr %9, align 4
  br label %39

38:                                               ; preds = %29
  store i32 0, ptr %4, align 4
  store i32 1, ptr %9, align 4
  br label %39

39:                                               ; preds = %38, %36, %21, %12
  call void @llvm.lifetime.end.p0(i64 4, ptr %8) #4
  %40 = load i32, ptr %4, align 4
  ret i32 %40
}

; Function Attrs: nounwind uwtable
define hidden i32 @mbedtls_ecdh_setup(ptr noundef %0, i32 noundef %1) #0 {
  %3 = alloca ptr, align 8
  %4 = alloca i32, align 4
  store ptr %0, ptr %3, align 8, !tbaa !15
  store i32 %1, ptr %4, align 4, !tbaa !3
  %5 = load i32, ptr %4, align 4, !tbaa !3
  switch i32 %5, label %6 [
  ]

6:                                                ; preds = %2
  %7 = load ptr, ptr %3, align 8, !tbaa !15
  %8 = getelementptr inbounds nuw %struct.mbedtls_ecdh_context, ptr %7, i32 0, i32 0
  store i8 0, ptr %8, align 8, !tbaa !20
  %9 = load ptr, ptr %3, align 8, !tbaa !15
  %10 = getelementptr inbounds nuw %struct.mbedtls_ecdh_context, ptr %9, i32 0, i32 2
  store i32 1, ptr %10, align 8, !tbaa !19
  %11 = load i32, ptr %4, align 4, !tbaa !3
  %12 = load ptr, ptr %3, align 8, !tbaa !15
  %13 = getelementptr inbounds nuw %struct.mbedtls_ecdh_context, ptr %12, i32 0, i32 1
  store i32 %11, ptr %13, align 4, !tbaa !17
  %14 = load ptr, ptr %3, align 8, !tbaa !15
  %15 = getelementptr inbounds nuw %struct.mbedtls_ecdh_context, ptr %14, i32 0, i32 3
  call void @ecdh_init_internal(ptr noundef %15)
  %16 = load ptr, ptr %3, align 8, !tbaa !15
  %17 = getelementptr inbounds nuw %struct.mbedtls_ecdh_context, ptr %16, i32 0, i32 3
  %18 = load i32, ptr %4, align 4, !tbaa !3
  %19 = call i32 @ecdh_setup_internal(ptr noundef %17, i32 noundef %18)
  ret i32 %19
}

; Function Attrs: nounwind uwtable
define internal i32 @mbedtls_ecdh_grp_id(ptr noundef %0) #0 {
  %2 = alloca ptr, align 8
  store ptr %0, ptr %2, align 8, !tbaa !15
  %3 = load ptr, ptr %2, align 8, !tbaa !15
  %4 = getelementptr inbounds nuw %struct.mbedtls_ecdh_context, ptr %3, i32 0, i32 1
  %5 = load i32, ptr %4, align 4, !tbaa !17
  ret i32 %5
}

; Function Attrs: nounwind uwtable
define hidden i32 @mbedtls_ecdh_get_params(ptr noundef %0, ptr noundef %1, i32 noundef %2) #0 {
  %4 = alloca i32, align 4
  %5 = alloca ptr, align 8
  %6 = alloca ptr, align 8
  %7 = alloca i32, align 4
  %8 = alloca i32, align 4
  %9 = alloca i32, align 4
  store ptr %0, ptr %5, align 8, !tbaa !15
  store ptr %1, ptr %6, align 8, !tbaa !38
  store i32 %2, ptr %7, align 4, !tbaa !3
  call void @llvm.lifetime.start.p0(i64 4, ptr %8) #4
  store i32 -110, ptr %8, align 4, !tbaa !3
  %10 = load i32, ptr %7, align 4, !tbaa !3
  %11 = icmp ne i32 %10, 0
  br i1 %11, label %12, label %16

12:                                               ; preds = %3
  %13 = load i32, ptr %7, align 4, !tbaa !3
  %14 = icmp ne i32 %13, 1
  br i1 %14, label %15, label %16

15:                                               ; preds = %12
  store i32 -20352, ptr %4, align 4
  store i32 1, ptr %9, align 4
  br label %52

16:                                               ; preds = %12, %3
  %17 = load ptr, ptr %5, align 8, !tbaa !15
  %18 = call i32 @mbedtls_ecdh_grp_id(ptr noundef %17)
  %19 = icmp eq i32 %18, 0
  br i1 %19, label %20, label %31

20:                                               ; preds = %16
  %21 = load ptr, ptr %5, align 8, !tbaa !15
  %22 = load ptr, ptr %6, align 8, !tbaa !38
  %23 = getelementptr inbounds nuw %struct.mbedtls_ecp_keypair, ptr %22, i32 0, i32 0
  %24 = getelementptr inbounds nuw %struct.mbedtls_ecp_group, ptr %23, i32 0, i32 0
  %25 = load i32, ptr %24, align 8, !tbaa !40
  %26 = call i32 @mbedtls_ecdh_setup(ptr noundef %21, i32 noundef %25)
  store i32 %26, ptr %8, align 4, !tbaa !3
  %27 = icmp ne i32 %26, 0
  br i1 %27, label %28, label %30

28:                                               ; preds = %20
  %29 = load i32, ptr %8, align 4, !tbaa !3
  store i32 %29, ptr %4, align 4
  store i32 1, ptr %9, align 4
  br label %52

30:                                               ; preds = %20
  br label %41

31:                                               ; preds = %16
  %32 = load ptr, ptr %5, align 8, !tbaa !15
  %33 = call i32 @mbedtls_ecdh_grp_id(ptr noundef %32)
  %34 = load ptr, ptr %6, align 8, !tbaa !38
  %35 = getelementptr inbounds nuw %struct.mbedtls_ecp_keypair, ptr %34, i32 0, i32 0
  %36 = getelementptr inbounds nuw %struct.mbedtls_ecp_group, ptr %35, i32 0, i32 0
  %37 = load i32, ptr %36, align 8, !tbaa !40
  %38 = icmp ne i32 %33, %37
  br i1 %38, label %39, label %40

39:                                               ; preds = %31
  store i32 -20352, ptr %4, align 4
  store i32 1, ptr %9, align 4
  br label %52

40:                                               ; preds = %31
  br label %41

41:                                               ; preds = %40, %30
  %42 = load ptr, ptr %5, align 8, !tbaa !15
  %43 = getelementptr inbounds nuw %struct.mbedtls_ecdh_context, ptr %42, i32 0, i32 2
  %44 = load i32, ptr %43, align 8, !tbaa !19
  switch i32 %44, label %51 [
    i32 1, label %45
  ]

45:                                               ; preds = %41
  %46 = load ptr, ptr %5, align 8, !tbaa !15
  %47 = getelementptr inbounds nuw %struct.mbedtls_ecdh_context, ptr %46, i32 0, i32 3
  %48 = load ptr, ptr %6, align 8, !tbaa !38
  %49 = load i32, ptr %7, align 4, !tbaa !3
  %50 = call i32 @ecdh_get_params_internal(ptr noundef %47, ptr noundef %48, i32 noundef %49)
  store i32 %50, ptr %4, align 4
  store i32 1, ptr %9, align 4
  br label %52

51:                                               ; preds = %41
  store i32 -20352, ptr %4, align 4
  store i32 1, ptr %9, align 4
  br label %52

52:                                               ; preds = %51, %45, %39, %28, %15
  call void @llvm.lifetime.end.p0(i64 4, ptr %8) #4
  %53 = load i32, ptr %4, align 4
  ret i32 %53
}