; Function Attrs: nounwind uwtable
define hidden i32 @mbedtls_ecdh_get_params(ptr noundef %0, ptr noundef %1, i32 noundef %2) local_unnamed_addr #1 {
  %or.cond = icmp ugt i32 %2, 1
  br i1 %or.cond, label %ecdh_get_params_internal.exit, label %4

4:                                                ; preds = %3
  %5 = getelementptr i8, ptr %0, i64 4
  %.val = load i32, ptr %5, align 4, !tbaa !3
  %6 = icmp eq i32 %.val, 0
  %7 = load i32, ptr %1, align 8, !tbaa !24
  br i1 %6, label %8, label %16

8:                                                ; preds = %4
  store i8 0, ptr %0, align 8, !tbaa !8
  %9 = getelementptr inbounds nuw i8, ptr %0, i64 8
  store i32 1, ptr %9, align 8, !tbaa !9
  store i32 %7, ptr %5, align 4, !tbaa !3
  %10 = getelementptr inbounds nuw i8, ptr %0, i64 16
  tail call void @mbedtls_ecp_group_init(ptr noundef nonnull %10) #7
  %11 = getelementptr inbounds nuw i8, ptr %0, i64 208
  tail call void @mbedtls_mpi_init(ptr noundef nonnull %11) #7
  %12 = getelementptr inbounds nuw i8, ptr %0, i64 224
  tail call void @mbedtls_ecp_point_init(ptr noundef nonnull %12) #7
  %13 = getelementptr inbounds nuw i8, ptr %0, i64 272
  tail call void @mbedtls_ecp_point_init(ptr noundef nonnull %13) #7
  %14 = getelementptr inbounds nuw i8, ptr %0, i64 320
  tail call void @mbedtls_mpi_init(ptr noundef nonnull %14) #7
  %15 = tail call i32 @mbedtls_ecp_group_load(ptr noundef nonnull %10, i32 noundef %7) #7
  %.not.i.i = icmp eq i32 %15, 0
  br i1 %.not.i.i, label %17, label %ecdh_get_params_internal.exit

16:                                               ; preds = %4
  %.not = icmp eq i32 %.val, %7
  br i1 %.not, label %17, label %ecdh_get_params_internal.exit

17:                                               ; preds = %16, %8
  %18 = getelementptr inbounds nuw i8, ptr %0, i64 8
  %19 = load i32, ptr %18, align 8, !tbaa !9
  %cond = icmp eq i32 %19, 1
  br i1 %cond, label %20, label %ecdh_get_params_internal.exit

20:                                               ; preds = %17
  %switch = icmp eq i32 %2, 1
  %21 = getelementptr inbounds nuw i8, ptr %1, i64 208
  br i1 %switch, label %22, label %25

22:                                               ; preds = %20
  %23 = getelementptr inbounds nuw i8, ptr %0, i64 272
  %24 = tail call i32 @mbedtls_ecp_copy(ptr noundef nonnull %23, ptr noundef nonnull %21) #7
  br label %ecdh_get_params_internal.exit

25:                                               ; preds = %20
  %26 = getelementptr inbounds nuw i8, ptr %0, i64 224
  %27 = tail call i32 @mbedtls_ecp_copy(ptr noundef nonnull %26, ptr noundef nonnull %21) #7
  %.not13.i = icmp eq i32 %27, 0
  br i1 %.not13.i, label %28, label %ecdh_get_params_internal.exit

28:                                               ; preds = %25
  %29 = getelementptr inbounds nuw i8, ptr %0, i64 208
  %30 = getelementptr inbounds nuw i8, ptr %1, i64 192
  %31 = tail call i32 @mbedtls_mpi_copy(ptr noundef nonnull %29, ptr noundef nonnull %30) #7
  br label %ecdh_get_params_internal.exit

ecdh_get_params_internal.exit:                    ; preds = %28, %25, %22, %17, %16, %8, %3
  %.0 = phi i32 [ -20352, %3 ], [ -20096, %8 ], [ -20352, %16 ], [ -20352, %17 ], [ %24, %22 ], [ %27, %25 ], [ %31, %28 ]
  ret i32 %.0
}